target datalayout = "e-m:e-p270:32:32-p271:32:32-p272:64:64-i64:64-i128:128-f80:128-n8:16:32:64-S128"
target triple = "x86_64-unknown-linux-gnu"

%"class.sat::literal" = type { i32 }
%"class.q::queue" = type { ptr, ptr, ptr, ptr, %"struct.q::queue::stats", %class.obj_ref, %class.obj_ref, %class.cost_parser, %class.cost_evaluator, %class.cached_var_subst, %class.svector.30, double, %class.svector.32, %class.svector.32 }
%"struct.q::queue::stats" = type { i32, i32 }
%class.obj_ref = type { ptr, ptr }
%class.cost_parser = type { %class.simple_parser, %class.arith_util, %class.ref_vector.4 }
%class.simple_parser = type { ptr, ptr, %class.map, %class.map.0, %class.ref_vector }
%class.map = type { %class.table2map }
%class.table2map = type { %class.core_hashtable }
%class.core_hashtable = type <{ ptr, i32, i32, i32, [4 x i8] }>
%class.map.0 = type { %class.table2map.1 }
%class.table2map.1 = type { %class.core_hashtable.2 }
%class.core_hashtable.2 = type <{ ptr, i32, i32, i32, [4 x i8] }>
%class.ref_vector = type { %class.ref_vector_core }
%class.ref_vector_core = type { %class.ref_manager_wrapper, %class.ptr_vector }
%class.ref_manager_wrapper = type { ptr }
%class.ptr_vector = type { %class.vector }
%class.vector = type { ptr }
%class.arith_util = type { ptr, ptr }
%class.ref_vector.4 = type { %class.ref_vector_core.5 }
%class.ref_vector_core.5 = type { %class.ref_manager_wrapper.6, %class.ptr_vector.7 }
%class.ref_manager_wrapper.6 = type { ptr }
%class.ptr_vector.7 = type { %class.vector.8 }
%class.vector.8 = type { ptr }
%class.cost_evaluator = type { ptr, %class.arith_util, i32, ptr }
%class.cached_var_subst = type { ptr, %class.var_subst, %class.ref_vector, %class.map.24, %class.region, %class.ptr_vector.28, ptr }
%class.var_subst = type { %class.beta_reducer, i8, [7 x i8] }
%class.beta_reducer = type <{ %class.rewriter_tpl, %struct.beta_reducer_cfg, [7 x i8] }>
%class.rewriter_tpl = type { %class.rewriter_core, ptr, i32, %class.ptr_vector, %class.var_shifter, %class.inv_var_shifter, %class.obj_ref, %class.obj_ref.21, %class.obj_ref.21, %class.svector.22 }
%class.rewriter_core = type { ptr, ptr, i8, i8, %class.ptr_vector.9, ptr, %class.svector, %class.ref_vector, %class.ptr_vector.9, ptr, %class.ref_vector.12, %class.obj_hashtable, ptr, i32, %class.svector.19 }
%class.svector = type { %class.vector.11 }
%class.vector.11 = type { ptr }
%class.ptr_vector.9 = type { %class.vector.10 }
%class.vector.10 = type { ptr }
%class.ref_vector.12 = type { %class.ref_vector_core.13 }
%class.ref_vector_core.13 = type { %class.ref_manager_wrapper.14, %class.ptr_vector.15 }
%class.ref_manager_wrapper.14 = type { ptr }
%class.ptr_vector.15 = type { %class.vector.16 }
%class.vector.16 = type { ptr }
%class.obj_hashtable = type { %class.core_hashtable.base.18, [4 x i8] }
%class.core_hashtable.base.18 = type <{ ptr, i32, i32, i32 }>
%class.svector.19 = type { %class.vector.20 }
%class.vector.20 = type { ptr }
%class.var_shifter = type <{ %class.var_shifter_core, i32, i32, i32, [4 x i8] }>
%class.var_shifter_core = type { %class.rewriter_core }
%class.inv_var_shifter = type <{ %class.var_shifter_core, i32, [4 x i8] }>
%class.obj_ref.21 = type { ptr, ptr }
%class.svector.22 = type { %class.vector.23 }
%class.vector.23 = type { ptr }
%struct.beta_reducer_cfg = type { i8 }
%class.map.24 = type { %class.table2map.25 }
%class.table2map.25 = type { %class.core_hashtable.26 }
%class.core_hashtable.26 = type <{ ptr, i32, i32, i32, [4 x i8] }>
%class.region = type { ptr, ptr, ptr, ptr, ptr }
%class.ptr_vector.28 = type { %class.vector.29 }
%class.vector.29 = type { ptr }
%class.svector.30 = type { %class.vector.31 }
%class.vector.31 = type { ptr }
%class.svector.32 = type { %class.vector.33 }
%class.vector.33 = type { ptr }
%"struct.q::binding" = type { %class.dll_base, ptr, ptr, i32, i32, i32, [0 x ptr] }
%class.dll_base = type { ptr, ptr }
%"struct.q::clause" = type { i32, %class.vector.303, %class.obj_ref.304, i32, %"class.sat::literal", ptr, ptr }
%class.vector.303 = type { ptr }
%class.obj_ref.304 = type { ptr, ptr }
%"class.q::quantifier_stat" = type { i32, i32, i32, i32, i32, i32, i32, i32, i32, i32, i32, float }

; Function Attrs: mustprogress nounwind uwtable
define linkonce_odr hidden void @_ZN1q15quantifier_stat15update_max_costEf(ptr noundef nonnull align 4 dereferenceable(48) %this, float noundef %c) #4 comdat align 2 {
entry:
  %this.addr = alloca ptr, align 8
  %c.addr = alloca float, align 4
  store ptr %this, ptr %this.addr, align 8
  store float %c, ptr %c.addr, align 4
  %this1 = load ptr, ptr %this.addr, align 8
  %m_max_cost = getelementptr inbounds %"class.q::quantifier_stat", ptr %this1, i32 0, i32 11
  %0 = load float, ptr %m_max_cost, align 4
  %1 = load float, ptr %c.addr, align 4
  %cmp = fcmp olt float %0, %1
  br i1 %cmp, label %if.then, label %if.end

if.then:                                          ; preds = %entry
  %2 = load float, ptr %c.addr, align 4
  %m_max_cost2 = getelementptr inbounds %"class.q::quantifier_stat", ptr %this1, i32 0, i32 11
  store float %2, ptr %m_max_cost2, align 4
  br label %if.end

if.end:                                           ; preds = %if.then, %entry
  ret void
}

; Function Attrs: mustprogress nounwind uwtable
define linkonce_odr hidden noundef ptr @_ZNK6vectorIfLb0EjE4dataEv(ptr noundef nonnull align 8 dereferenceable(8) %this) #4 comdat align 2 {
entry:
  %this.addr = alloca ptr, align 8
  store ptr %this, ptr %this.addr, align 8
  %this1 = load ptr, ptr %this.addr, align 8
  %m_data = getelementptr inbounds %class.vector.31, ptr %this1, i32 0, i32 0
  %0 = load ptr, ptr %m_data, align 8
  ret ptr %0
}

; Function Attrs: mustprogress nounwind uwtable
define linkonce_odr hidden noundef i32 @_ZNK6vectorIfLb0EjE4sizeEv(ptr noundef nonnull align 8 dereferenceable(8) %this) #4 comdat align 2 {
entry:
  %retval = alloca i32, align 4
  %this.addr = alloca ptr, align 8
  store ptr %this, ptr %this.addr, align 8
  %this1 = load ptr, ptr %this.addr, align 8
  %m_data = getelementptr inbounds %class.vector.31, ptr %this1, i32 0, i32 0
  %0 = load ptr, ptr %m_data, align 8
  %cmp = icmp eq ptr %0, null
  br i1 %cmp, label %if.then, label %if.end

if.then:                                          ; preds = %entry
  store i32 0, ptr %retval, align 4
  br label %return

if.end:                                           ; preds = %entry
  %m_data2 = getelementptr inbounds %class.vector.31, ptr %this1, i32 0, i32 0
  %1 = load ptr, ptr %m_data2, align 8
  %arrayidx = getelementptr inbounds i32, ptr %1, i64 -1
  %2 = load i32, ptr %arrayidx, align 4
  store i32 %2, ptr %retval, align 4
  br label %return

return:                                           ; preds = %if.end, %if.then
  %3 = load i32, ptr %retval, align 4
  ret i32 %3
}

; Function Attrs: mustprogress nounwind uwtable
define linkonce_odr hidden noundef ptr @_ZNK7obj_refI4expr11ast_managerEcvPS0_Ev(ptr noundef nonnull align 8 dereferenceable(16) %this) #4 comdat align 2 {
entry:
  %this.addr = alloca ptr, align 8
  store ptr %this, ptr %this.addr, align 8
  %this1 = load ptr, ptr %this.addr, align 8
  %m_obj = getelementptr inbounds %class.obj_ref, ptr %this1, i32 0, i32 0
  %0 = load ptr, ptr %m_obj, align 8
  ret ptr %0
}

; Function Attrs: mustprogress uwtable
define hidden noundef float @_ZN1q5queue8get_costERNS_7bindingE(ptr noundef nonnull align 8 dereferenceable(912) %this, ptr noundef nonnull align 8 dereferenceable(48) %f) #5 align 2 {
entry:
  %this.addr = alloca ptr, align 8
  %f.addr = alloca ptr, align 8
  %r = alloca float, align 4
  store ptr %this, ptr %this.addr, align 8
  store ptr %f, ptr %f.addr, align 8
  %this1 = load ptr, ptr %this.addr, align 8
  %0 = load ptr, ptr %f.addr, align 8
  call void @_ZN1q5queue10set_valuesERNS_7bindingEf(ptr noundef nonnull align 8 dereferenceable(912) %this1, ptr noundef nonnull align 8 dereferenceable(48) %0, float noundef 0.000000e+00)
  %m_evaluator = getelementptr inbounds %"class.q::queue", ptr %this1, i32 0, i32 8
  %m_cost_function = getelementptr inbounds %"class.q::queue", ptr %this1, i32 0, i32 5
  %call = call noundef ptr @_ZNK7obj_refI4expr11ast_managerEcvPS0_Ev(ptr noundef nonnull align 8 dereferenceable(16) %m_cost_function)
  %m_vals = getelementptr inbounds %"class.q::queue", ptr %this1, i32 0, i32 10
  %call2 = call noundef i32 @_ZNK6vectorIfLb0EjE4sizeEv(ptr noundef nonnull align 8 dereferenceable(8) %m_vals)
  %m_vals3 = getelementptr inbounds %"class.q::queue", ptr %this1, i32 0, i32 10
  %call4 = call noundef ptr @_ZNK6vectorIfLb0EjE4dataEv(ptr noundef nonnull align 8 dereferenceable(8) %m_vals3)
  %call5 = call noundef float @_ZN14cost_evaluatorclEP4exprjPKf(ptr noundef nonnull align 8 dereferenceable(40) %m_evaluator, ptr noundef %call, i32 noundef %call2, ptr noundef %call4)
  store float %call5, ptr %r, align 4
  %1 = load ptr, ptr %f.addr, align 8
  %c = getelementptr inbounds %"struct.q::binding", ptr %1, i32 0, i32 1
  %2 = load ptr, ptr %c, align 8
  %m_stat = getelementptr inbounds %"struct.q::clause", ptr %2, i32 0, i32 5
  %3 = load ptr, ptr %m_stat, align 8
  %4 = load float, ptr %r, align 4
  call void @_ZN1q15quantifier_stat15update_max_costEf(ptr noundef nonnull align 4 dereferenceable(48) %3, float noundef %4)
  %5 = load float, ptr %r, align 4
  ret float %5
}