; Function Attrs: mustprogress uwtable
define hidden noundef float @_ZN1q5queue8get_costERNS_7bindingE(ptr noundef nonnull align 8 dereferenceable(912) %this, ptr nocapture noundef nonnull readonly align 8 dereferenceable(48) %f) local_unnamed_addr #3 align 2 {
entry:
  tail call void @_ZN1q5queue10set_valuesERNS_7bindingEf(ptr noundef nonnull align 8 dereferenceable(912) %this, ptr noundef nonnull align 8 dereferenceable(48) %f, float noundef 0.000000e+00)
  %m_evaluator = getelementptr inbounds i8, ptr %this, i64 184
  %m_cost_function = getelementptr inbounds i8, ptr %this, i64 40
  %0 = load ptr, ptr %m_cost_function, align 8
  %m_vals = getelementptr inbounds i8, ptr %this, i64 880
  %1 = load ptr, ptr %m_vals, align 8
  %cmp.i = icmp eq ptr %1, null
  br i1 %cmp.i, label %_ZNK6vectorIfLb0EjE4sizeEv.exit, label %if.end.i

if.end.i:                                         ; preds = %entry
  %arrayidx.i = getelementptr inbounds i8, ptr %1, i64 -4
  %2 = load i32, ptr %arrayidx.i, align 4
  br label %_ZNK6vectorIfLb0EjE4sizeEv.exit

_ZNK6vectorIfLb0EjE4sizeEv.exit:                  ; preds = %entry, %if.end.i
  %retval.0.i = phi i32 [ %2, %if.end.i ], [ 0, %entry ]
  %call5 = tail call noundef float @_ZN14cost_evaluatorclEP4exprjPKf(ptr noundef nonnull align 8 dereferenceable(40) %m_evaluator, ptr noundef %0, i32 noundef %retval.0.i, ptr noundef %1)
  %c = getelementptr inbounds i8, ptr %f, i64 16
  %3 = load ptr, ptr %c, align 8
  %m_stat = getelementptr inbounds i8, ptr %3, i64 40
  %4 = load ptr, ptr %m_stat, align 8
  %m_max_cost.i = getelementptr inbounds i8, ptr %4, i64 44
  %5 = load float, ptr %m_max_cost.i, align 4
  %cmp.i3 = fcmp olt float %5, %call5
  br i1 %cmp.i3, label %if.then.i, label %_ZN1q15quantifier_stat15update_max_costEf.exit

if.then.i:                                        ; preds = %_ZNK6vectorIfLb0EjE4sizeEv.exit
  store float %call5, ptr %m_max_cost.i, align 4
  br label %_ZN1q15quantifier_stat15update_max_costEf.exit

_ZN1q15quantifier_stat15update_max_costEf.exit:   ; preds = %_ZNK6vectorIfLb0EjE4sizeEv.exit, %if.then.i
  ret float %call5
}